target datalayout = "e-m:e-p270:32:32-p271:32:32-p272:64:64-i64:64-i128:128-f80:128-n8:16:32:64-S128"
target triple = "x86_64-pc-linux-gnu"

%struct.VP8Decoder = type { i32, i32, ptr, %struct.VP8BitReader, i32, %struct.VP8FrameHeader, %struct.VP8PictureHeader, %struct.VP8FilterHeader, %struct.VP8SegmentHeader, %struct.WebPWorker, i32, i32, i32, %struct.VP8ThreadContext, i32, i32, i32, i32, i32, i32, i32, [8 x %struct.VP8BitReader], i32, %struct.VP8Random, [4 x %struct.VP8QuantMatrix], %struct.VP8Proba, i32, i8, ptr, [4 x i8], ptr, ptr, ptr, ptr, ptr, ptr, ptr, i32, i32, ptr, i64, i32, i32, ptr, i32, [4 x [2 x %struct.VP8FInfo]], ptr, ptr, i64, i32, ptr, ptr, ptr, i32 }
%struct.VP8BitReader = type { i64, i32, i32, ptr, ptr, ptr, i32 }
%struct.VP8FrameHeader = type { i8, i8, i8, i32 }
%struct.VP8PictureHeader = type { i16, i16, i8, i8, i8, i8 }
%struct.VP8FilterHeader = type { i32, i32, i32, i32, [4 x i32], [4 x i32] }
%struct.VP8SegmentHeader = type { i32, i32, i32, [4 x i8], [4 x i8] }
%struct.WebPWorker = type { ptr, i32, ptr, ptr, ptr, i32 }
%struct.VP8ThreadContext = type { i32, i32, i32, ptr, ptr, %struct.VP8Io }
%struct.VP8Io = type { i32, i32, i32, i32, i32, ptr, ptr, ptr, i32, i32, ptr, ptr, ptr, ptr, i32, i64, ptr, i32, i32, i32, i32, i32, i32, i32, i32, i32, ptr }
%struct.VP8Random = type { i32, i32, [55 x i32], i32 }
%struct.VP8QuantMatrix = type { [2 x i32], [2 x i32], [2 x i32], i32, i32 }
%struct.VP8Proba = type { [3 x i8], [4 x [8 x %struct.VP8BandProbas]], [4 x [17 x ptr]] }
%struct.VP8BandProbas = type { [3 x [11 x i8]] }
%struct.VP8FInfo = type { i8, i8, i8, i8 }
%struct.VP8MB = type { i8, i8 }

; Function Attrs: nounwind uwtable
define hidden void @VP8InitScanline(ptr noundef %0) #0 {
  %2 = alloca ptr, align 8
  %3 = alloca ptr, align 8
  store ptr %0, ptr %2, align 8, !tbaa !10
  call void @llvm.lifetime.start.p0(i64 8, ptr %3) #8
  %4 = load ptr, ptr %2, align 8, !tbaa !10
  %5 = getelementptr inbounds nuw %struct.VP8Decoder, ptr %4, i32 0, i32 31
  %6 = load ptr, ptr %5, align 8, !tbaa !87
  %7 = getelementptr inbounds %struct.VP8MB, ptr %6, i64 -1
  store ptr %7, ptr %3, align 8, !tbaa !33
  %8 = load ptr, ptr %3, align 8, !tbaa !33
  %9 = getelementptr inbounds nuw %struct.VP8MB, ptr %8, i32 0, i32 0
  store i8 0, ptr %9, align 1, !tbaa !93
  %10 = load ptr, ptr %3, align 8, !tbaa !33
  %11 = getelementptr inbounds nuw %struct.VP8MB, ptr %10, i32 0, i32 1
  store i8 0, ptr %11, align 1, !tbaa !96
  %12 = load ptr, ptr %2, align 8, !tbaa !10
  %13 = getelementptr inbounds nuw %struct.VP8Decoder, ptr %12, i32 0, i32 29
  %14 = getelementptr inbounds [4 x i8], ptr %13, i64 0, i64 0
  call void @llvm.memset.p0.i64(ptr align 8 %14, i8 0, i64 4, i1 false)
  %15 = load ptr, ptr %2, align 8, !tbaa !10
  %16 = getelementptr inbounds nuw %struct.VP8Decoder, ptr %15, i32 0, i32 41
  store i32 0, ptr %16, align 8, !tbaa !88
  call void @llvm.lifetime.end.p0(i64 8, ptr %3) #8
  ret void
}