; Function Attrs: mustprogress nofree norecurse nosync nounwind willreturn memory(write, argmem: readwrite, inaccessiblemem: none) uwtable
define hidden void @VP8InitScanline(ptr noundef captures(none) initializes((2816, 2820), (2904, 2908)) %0) local_unnamed_addr #8 {
  %2 = getelementptr inbounds nuw i8, ptr %0, i64 2832
  %3 = load ptr, ptr %2, align 8, !tbaa !76
  %4 = getelementptr inbounds i8, ptr %3, i64 -2
  store i8 0, ptr %4, align 1, !tbaa !88
  %5 = getelementptr inbounds i8, ptr %3, i64 -1
  store i8 0, ptr %5, align 1, !tbaa !84
  %6 = getelementptr inbounds nuw i8, ptr %0, i64 2816
  store i32 0, ptr %6, align 8
  %7 = getelementptr inbounds nuw i8, ptr %0, i64 2904
  store i32 0, ptr %7, align 8, !tbaa !77
  ret void
}